target datalayout = "e-m:e-p270:32:32-p271:32:32-p272:64:64-i64:64-i128:128-f80:128-n8:16:32:64-S128"
target triple = "x86_64-pc-linux-gnu"

%struct.DdNode = type { i32, i32, ptr, %union.anon, i64 }
%union.anon = type { %struct.DdChildren }
%struct.DdChildren = type { ptr, ptr }
%struct.DdManager = type { %struct.DdNode, ptr, ptr, ptr, ptr, ptr, ptr, ptr, i32, i32, double, double, double, i32, i32, i32, i32, i32, i32, ptr, ptr, %struct.DdSubtable, i32, i32, i32, i32, i32, i32, i32, double, i32, i32, i32, ptr, i64, double, i32, ptr, ptr, ptr, ptr, ptr, ptr, ptr, i32, ptr, ptr, ptr, ptr, ptr, ptr, i32, i32, i32, double, i32, i32, i32, i32, double, double, i32, i32, i32, i32, i32, i32, i32, i32, i32, ptr, ptr, i32, i32, i32, i32, i32, i32, ptr, ptr, ptr, ptr, ptr, ptr, ptr, ptr, i32, i64, i64, i64, i32, i64, i64, double, double, double, double, double, double, i32, ptr, ptr, i64 }
%struct.DdSubtable = type { ptr, i32, i32, i32, i32, i32, i32, i32, i32, i32, i32, i32 }

; Function Attrs: nounwind uwtable
define internal ptr @ddBddToAddRecur(ptr noundef %0, ptr noundef %1) #0 {
  %3 = alloca ptr, align 8
  %4 = alloca ptr, align 8
  %5 = alloca ptr, align 8
  %6 = alloca ptr, align 8
  %7 = alloca ptr, align 8
  %8 = alloca ptr, align 8
  %9 = alloca ptr, align 8
  %10 = alloca ptr, align 8
  %11 = alloca ptr, align 8
  %12 = alloca ptr, align 8
  %13 = alloca i32, align 4
  %14 = alloca i32, align 4
  store ptr %0, ptr %4, align 8, !tbaa !3
  store ptr %1, ptr %5, align 8, !tbaa !8
  call void @llvm.lifetime.start.p0(i64 8, ptr %6) #5
  call void @llvm.lifetime.start.p0(i64 8, ptr %7) #5
  call void @llvm.lifetime.start.p0(i64 8, ptr %8) #5
  call void @llvm.lifetime.start.p0(i64 8, ptr %9) #5
  call void @llvm.lifetime.start.p0(i64 8, ptr %10) #5
  call void @llvm.lifetime.start.p0(i64 8, ptr %11) #5
  call void @llvm.lifetime.start.p0(i64 8, ptr %12) #5
  call void @llvm.lifetime.start.p0(i64 4, ptr %13) #5
  store i32 0, ptr %13, align 4, !tbaa !34
  %15 = load ptr, ptr %4, align 8, !tbaa !3
  %16 = getelementptr inbounds nuw %struct.DdManager, ptr %15, i32 0, i32 1
  %17 = load ptr, ptr %16, align 8, !tbaa !32
  store ptr %17, ptr %6, align 8, !tbaa !8
  %18 = load ptr, ptr %5, align 8, !tbaa !8
  %19 = ptrtoint ptr %18 to i64
  %20 = and i64 %19, -2
  %21 = inttoptr i64 %20 to ptr
  %22 = getelementptr inbounds nuw %struct.DdNode, ptr %21, i32 0, i32 0
  %23 = load i32, ptr %22, align 8, !tbaa !31
  %24 = icmp eq i32 %23, 2147483647
  br i1 %24, label %25, label %37

25:                                               ; preds = %2
  %26 = load ptr, ptr %5, align 8, !tbaa !8
  %27 = load ptr, ptr %6, align 8, !tbaa !8
  %28 = icmp eq ptr %26, %27
  br i1 %28, label %29, label %31

29:                                               ; preds = %25
  %30 = load ptr, ptr %6, align 8, !tbaa !8
  store ptr %30, ptr %7, align 8, !tbaa !8
  br label %35

31:                                               ; preds = %25
  %32 = load ptr, ptr %4, align 8, !tbaa !3
  %33 = getelementptr inbounds nuw %struct.DdManager, ptr %32, i32 0, i32 2
  %34 = load ptr, ptr %33, align 8, !tbaa !39
  store ptr %34, ptr %7, align 8, !tbaa !8
  br label %35

35:                                               ; preds = %31, %29
  %36 = load ptr, ptr %7, align 8, !tbaa !8
  store ptr %36, ptr %3, align 8
  store i32 1, ptr %14, align 4
  br label %179

37:                                               ; preds = %2
  %38 = load ptr, ptr %4, align 8, !tbaa !3
  %39 = load ptr, ptr %5, align 8, !tbaa !8
  %40 = call ptr @cuddCacheLookup1(ptr noundef %38, ptr noundef @ddBddToAddRecur, ptr noundef %39)
  store ptr %40, ptr %7, align 8, !tbaa !8
  %41 = load ptr, ptr %7, align 8, !tbaa !8
  %42 = icmp ne ptr %41, null
  br i1 %42, label %43, label %45

43:                                               ; preds = %37
  %44 = load ptr, ptr %7, align 8, !tbaa !8
  store ptr %44, ptr %3, align 8
  store i32 1, ptr %14, align 4
  br label %179

45:                                               ; preds = %37
  %46 = load ptr, ptr %5, align 8, !tbaa !8
  %47 = ptrtoint ptr %46 to i64
  %48 = and i64 %47, 1
  %49 = trunc i64 %48 to i32
  %50 = icmp ne i32 %49, 0
  br i1 %50, label %51, label %66

51:                                               ; preds = %45
  store i32 1, ptr %13, align 4, !tbaa !34
  %52 = load ptr, ptr %5, align 8, !tbaa !8
  %53 = ptrtoint ptr %52 to i64
  %54 = and i64 %53, -2
  %55 = inttoptr i64 %54 to ptr
  %56 = getelementptr inbounds nuw %struct.DdNode, ptr %55, i32 0, i32 3
  %57 = getelementptr inbounds nuw %struct.DdChildren, ptr %56, i32 0, i32 0
  %58 = load ptr, ptr %57, align 8, !tbaa !33
  store ptr %58, ptr %11, align 8, !tbaa !8
  %59 = load ptr, ptr %5, align 8, !tbaa !8
  %60 = ptrtoint ptr %59 to i64
  %61 = and i64 %60, -2
  %62 = inttoptr i64 %61 to ptr
  %63 = getelementptr inbounds nuw %struct.DdNode, ptr %62, i32 0, i32 3
  %64 = getelementptr inbounds nuw %struct.DdChildren, ptr %63, i32 0, i32 1
  %65 = load ptr, ptr %64, align 8, !tbaa !33
  store ptr %65, ptr %12, align 8, !tbaa !8
  br label %75

66:                                               ; preds = %45
  %67 = load ptr, ptr %5, align 8, !tbaa !8
  %68 = getelementptr inbounds nuw %struct.DdNode, ptr %67, i32 0, i32 3
  %69 = getelementptr inbounds nuw %struct.DdChildren, ptr %68, i32 0, i32 0
  %70 = load ptr, ptr %69, align 8, !tbaa !33
  store ptr %70, ptr %11, align 8, !tbaa !8
  %71 = load ptr, ptr %5, align 8, !tbaa !8
  %72 = getelementptr inbounds nuw %struct.DdNode, ptr %71, i32 0, i32 3
  %73 = getelementptr inbounds nuw %struct.DdChildren, ptr %72, i32 0, i32 1
  %74 = load ptr, ptr %73, align 8, !tbaa !33
  store ptr %74, ptr %12, align 8, !tbaa !8
  br label %75

75:                                               ; preds = %66, %51
  %76 = load ptr, ptr %4, align 8, !tbaa !3
  %77 = load ptr, ptr %11, align 8, !tbaa !8
  %78 = call ptr @ddBddToAddRecur(ptr noundef %76, ptr noundef %77)
  store ptr %78, ptr %9, align 8, !tbaa !8
  %79 = load ptr, ptr %9, align 8, !tbaa !8
  %80 = icmp eq ptr %79, null
  br i1 %80, label %81, label %82

81:                                               ; preds = %75
  store ptr null, ptr %3, align 8
  store i32 1, ptr %14, align 4
  br label %179

82:                                               ; preds = %75
  %83 = load ptr, ptr %9, align 8, !tbaa !8
  %84 = ptrtoint ptr %83 to i64
  %85 = and i64 %84, -2
  %86 = inttoptr i64 %85 to ptr
  %87 = getelementptr inbounds nuw %struct.DdNode, ptr %86, i32 0, i32 1
  %88 = load i32, ptr %87, align 4, !tbaa !12
  %89 = add i32 %88, 1
  store i32 %89, ptr %87, align 4, !tbaa !12
  %90 = load ptr, ptr %4, align 8, !tbaa !3
  %91 = load ptr, ptr %12, align 8, !tbaa !8
  %92 = call ptr @ddBddToAddRecur(ptr noundef %90, ptr noundef %91)
  store ptr %92, ptr %10, align 8, !tbaa !8
  %93 = load ptr, ptr %10, align 8, !tbaa !8
  %94 = icmp eq ptr %93, null
  br i1 %94, label %95, label %98

95:                                               ; preds = %82
  %96 = load ptr, ptr %4, align 8, !tbaa !3
  %97 = load ptr, ptr %9, align 8, !tbaa !8
  call void @Cudd_RecursiveDeref(ptr noundef %96, ptr noundef %97)
  store ptr null, ptr %3, align 8
  store i32 1, ptr %14, align 4
  br label %179

98:                                               ; preds = %82
  %99 = load ptr, ptr %10, align 8, !tbaa !8
  %100 = ptrtoint ptr %99 to i64
  %101 = and i64 %100, -2
  %102 = inttoptr i64 %101 to ptr
  %103 = getelementptr inbounds nuw %struct.DdNode, ptr %102, i32 0, i32 1
  %104 = load i32, ptr %103, align 4, !tbaa !12
  %105 = add i32 %104, 1
  store i32 %105, ptr %103, align 4, !tbaa !12
  %106 = load ptr, ptr %4, align 8, !tbaa !3
  %107 = load ptr, ptr %5, align 8, !tbaa !8
  %108 = ptrtoint ptr %107 to i64
  %109 = and i64 %108, -2
  %110 = inttoptr i64 %109 to ptr
  %111 = getelementptr inbounds nuw %struct.DdNode, ptr %110, i32 0, i32 0
  %112 = load i32, ptr %111, align 8, !tbaa !31
  %113 = load ptr, ptr %9, align 8, !tbaa !8
  %114 = load ptr, ptr %10, align 8, !tbaa !8
  %115 = call ptr @cuddUniqueInter(ptr noundef %106, i32 noundef %112, ptr noundef %113, ptr noundef %114)
  store ptr %115, ptr %7, align 8, !tbaa !8
  %116 = load ptr, ptr %7, align 8, !tbaa !8
  %117 = icmp eq ptr %116, null
  br i1 %117, label %118, label %123

118:                                              ; preds = %98
  %119 = load ptr, ptr %4, align 8, !tbaa !3
  %120 = load ptr, ptr %9, align 8, !tbaa !8
  call void @Cudd_RecursiveDeref(ptr noundef %119, ptr noundef %120)
  %121 = load ptr, ptr %4, align 8, !tbaa !3
  %122 = load ptr, ptr %10, align 8, !tbaa !8
  call void @Cudd_RecursiveDeref(ptr noundef %121, ptr noundef %122)
  store ptr null, ptr %3, align 8
  store i32 1, ptr %14, align 4
  br label %179

123:                                              ; preds = %98
  %124 = load ptr, ptr %9, align 8, !tbaa !8
  %125 = ptrtoint ptr %124 to i64
  %126 = and i64 %125, -2
  %127 = inttoptr i64 %126 to ptr
  %128 = getelementptr inbounds nuw %struct.DdNode, ptr %127, i32 0, i32 1
  %129 = load i32, ptr %128, align 4, !tbaa !12
  %130 = add i32 %129, -1
  store i32 %130, ptr %128, align 4, !tbaa !12
  %131 = load ptr, ptr %10, align 8, !tbaa !8
  %132 = ptrtoint ptr %131 to i64
  %133 = and i64 %132, -2
  %134 = inttoptr i64 %133 to ptr
  %135 = getelementptr inbounds nuw %struct.DdNode, ptr %134, i32 0, i32 1
  %136 = load i32, ptr %135, align 4, !tbaa !12
  %137 = add i32 %136, -1
  store i32 %137, ptr %135, align 4, !tbaa !12
  %138 = load i32, ptr %13, align 4, !tbaa !34
  %139 = icmp ne i32 %138, 0
  br i1 %139, label %140, label %174

140:                                              ; preds = %123
  %141 = load ptr, ptr %7, align 8, !tbaa !8
  %142 = ptrtoint ptr %141 to i64
  %143 = and i64 %142, -2
  %144 = inttoptr i64 %143 to ptr
  %145 = getelementptr inbounds nuw %struct.DdNode, ptr %144, i32 0, i32 1
  %146 = load i32, ptr %145, align 4, !tbaa !12
  %147 = add i32 %146, 1
  store i32 %147, ptr %145, align 4, !tbaa !12
  %148 = load ptr, ptr %4, align 8, !tbaa !3
  %149 = load ptr, ptr %7, align 8, !tbaa !8
  %150 = call ptr @cuddAddCmplRecur(ptr noundef %148, ptr noundef %149)
  store ptr %150, ptr %8, align 8, !tbaa !8
  %151 = load ptr, ptr %8, align 8, !tbaa !8
  %152 = icmp eq ptr %151, null
  br i1 %152, label %153, label %156

153:                                              ; preds = %140
  %154 = load ptr, ptr %4, align 8, !tbaa !3
  %155 = load ptr, ptr %7, align 8, !tbaa !8
  call void @Cudd_RecursiveDeref(ptr noundef %154, ptr noundef %155)
  store ptr null, ptr %3, align 8
  store i32 1, ptr %14, align 4
  br label %179

156:                                              ; preds = %140
  %157 = load ptr, ptr %8, align 8, !tbaa !8
  %158 = ptrtoint ptr %157 to i64
  %159 = and i64 %158, -2
  %160 = inttoptr i64 %159 to ptr
  %161 = getelementptr inbounds nuw %struct.DdNode, ptr %160, i32 0, i32 1
  %162 = load i32, ptr %161, align 4, !tbaa !12
  %163 = add i32 %162, 1
  store i32 %163, ptr %161, align 4, !tbaa !12
  %164 = load ptr, ptr %4, align 8, !tbaa !3
  %165 = load ptr, ptr %7, align 8, !tbaa !8
  call void @Cudd_RecursiveDeref(ptr noundef %164, ptr noundef %165)
  %166 = load ptr, ptr %8, align 8, !tbaa !8
  store ptr %166, ptr %7, align 8, !tbaa !8
  %167 = load ptr, ptr %7, align 8, !tbaa !8
  %168 = ptrtoint ptr %167 to i64
  %169 = and i64 %168, -2
  %170 = inttoptr i64 %169 to ptr
  %171 = getelementptr inbounds nuw %struct.DdNode, ptr %170, i32 0, i32 1
  %172 = load i32, ptr %171, align 4, !tbaa !12
  %173 = add i32 %172, -1
  store i32 %173, ptr %171, align 4, !tbaa !12
  br label %174

174:                                              ; preds = %156, %123
  %175 = load ptr, ptr %4, align 8, !tbaa !3
  %176 = load ptr, ptr %5, align 8, !tbaa !8
  %177 = load ptr, ptr %7, align 8, !tbaa !8
  call void @cuddCacheInsert1(ptr noundef %175, ptr noundef @ddBddToAddRecur, ptr noundef %176, ptr noundef %177)
  %178 = load ptr, ptr %7, align 8, !tbaa !8
  store ptr %178, ptr %3, align 8
  store i32 1, ptr %14, align 4
  br label %179

179:                                              ; preds = %174, %153, %118, %95, %81, %43, %35
  call void @llvm.lifetime.end.p0(i64 4, ptr %13) #5
  call void @llvm.lifetime.end.p0(i64 8, ptr %12) #5
  call void @llvm.lifetime.end.p0(i64 8, ptr %11) #5
  call void @llvm.lifetime.end.p0(i64 8, ptr %10) #5
  call void @llvm.lifetime.end.p0(i64 8, ptr %9) #5
  call void @llvm.lifetime.end.p0(i64 8, ptr %8) #5
  call void @llvm.lifetime.end.p0(i64 8, ptr %7) #5
  call void @llvm.lifetime.end.p0(i64 8, ptr %6) #5
  %180 = load ptr, ptr %3, align 8
  ret ptr %180
}