; Function Attrs: nounwind uwtable
define internal ptr @ddBddToAddRecur(ptr noundef %0, ptr noundef %1) #0 {
  %3 = ptrtoint ptr %1 to i64
  %4 = and i64 %3, -2
  %5 = inttoptr i64 %4 to ptr
  %6 = load i32, ptr %5, align 8, !tbaa !27
  %7 = icmp eq i32 %6, 2147483647
  br i1 %7, label %8, label %15

8:                                                ; preds = %2
  %9 = getelementptr inbounds nuw i8, ptr %0, i64 40
  %10 = load ptr, ptr %9, align 8, !tbaa !28
  %11 = icmp eq ptr %1, %10
  br i1 %11, label %67, label %12

12:                                               ; preds = %8
  %13 = getelementptr inbounds nuw i8, ptr %0, i64 48
  %14 = load ptr, ptr %13, align 8, !tbaa !34
  br label %67

15:                                               ; preds = %2
  %16 = tail call ptr @cuddCacheLookup1(ptr noundef nonnull %0, ptr noundef nonnull @ddBddToAddRecur, ptr noundef %1) #4
  %.not = icmp eq ptr %16, null
  br i1 %.not, label %17, label %67

17:                                               ; preds = %15
  %18 = and i64 %3, 1
  %.not63 = icmp eq i64 %18, 0
  %. = select i1 %.not63, ptr %1, ptr %5
  %.053.in = getelementptr inbounds nuw i8, ptr %., i64 24
  %.053 = load ptr, ptr %.053.in, align 8, !tbaa !29
  %.054.in = getelementptr inbounds nuw i8, ptr %., i64 16
  %.054 = load ptr, ptr %.054.in, align 8, !tbaa !29
  %19 = tail call ptr @ddBddToAddRecur(ptr noundef nonnull %0, ptr noundef %.054)
  %20 = icmp eq ptr %19, null
  br i1 %20, label %67, label %21

21:                                               ; preds = %17
  %22 = ptrtoint ptr %19 to i64
  %23 = and i64 %22, -2
  %24 = inttoptr i64 %23 to ptr
  %25 = getelementptr inbounds nuw i8, ptr %24, i64 4
  %26 = load i32, ptr %25, align 4, !tbaa !3
  %27 = add i32 %26, 1
  store i32 %27, ptr %25, align 4, !tbaa !3
  %28 = tail call ptr @ddBddToAddRecur(ptr noundef nonnull %0, ptr noundef %.053)
  %29 = icmp eq ptr %28, null
  br i1 %29, label %30, label %31

30:                                               ; preds = %21
  tail call void @Cudd_RecursiveDeref(ptr noundef nonnull %0, ptr noundef nonnull %19) #4
  br label %67

31:                                               ; preds = %21
  %32 = ptrtoint ptr %28 to i64
  %33 = and i64 %32, -2
  %34 = inttoptr i64 %33 to ptr
  %35 = getelementptr inbounds nuw i8, ptr %34, i64 4
  %36 = load i32, ptr %35, align 4, !tbaa !3
  %37 = add i32 %36, 1
  store i32 %37, ptr %35, align 4, !tbaa !3
  %38 = load i32, ptr %5, align 8, !tbaa !27
  %39 = tail call ptr @cuddUniqueInter(ptr noundef nonnull %0, i32 noundef %38, ptr noundef nonnull %19, ptr noundef nonnull %28) #4
  %40 = icmp eq ptr %39, null
  br i1 %40, label %41, label %42

41:                                               ; preds = %31
  tail call void @Cudd_RecursiveDeref(ptr noundef nonnull %0, ptr noundef nonnull %19) #4
  tail call void @Cudd_RecursiveDeref(ptr noundef nonnull %0, ptr noundef nonnull %28) #4
  br label %67

42:                                               ; preds = %31
  %43 = load i32, ptr %25, align 4, !tbaa !3
  %44 = add i32 %43, -1
  store i32 %44, ptr %25, align 4, !tbaa !3
  %45 = load i32, ptr %35, align 4, !tbaa !3
  %46 = add i32 %45, -1
  store i32 %46, ptr %35, align 4, !tbaa !3
  br i1 %.not63, label %66, label %47

47:                                               ; preds = %42
  %48 = ptrtoint ptr %39 to i64
  %49 = and i64 %48, -2
  %50 = inttoptr i64 %49 to ptr
  %51 = getelementptr inbounds nuw i8, ptr %50, i64 4
  %52 = load i32, ptr %51, align 4, !tbaa !3
  %53 = add i32 %52, 1
  store i32 %53, ptr %51, align 4, !tbaa !3
  %54 = tail call ptr @cuddAddCmplRecur(ptr noundef nonnull %0, ptr noundef nonnull %39) #4
  %55 = icmp eq ptr %54, null
  br i1 %55, label %56, label %57

56:                                               ; preds = %47
  tail call void @Cudd_RecursiveDeref(ptr noundef nonnull %0, ptr noundef nonnull %39) #4
  br label %67

57:                                               ; preds = %47
  %58 = ptrtoint ptr %54 to i64
  %59 = and i64 %58, -2
  %60 = inttoptr i64 %59 to ptr
  %61 = getelementptr inbounds nuw i8, ptr %60, i64 4
  %62 = load i32, ptr %61, align 4, !tbaa !3
  %63 = add i32 %62, 1
  store i32 %63, ptr %61, align 4, !tbaa !3
  tail call void @Cudd_RecursiveDeref(ptr noundef nonnull %0, ptr noundef nonnull %39) #4
  %64 = load i32, ptr %61, align 4, !tbaa !3
  %65 = add i32 %64, -1
  store i32 %65, ptr %61, align 4, !tbaa !3
  br label %66

66:                                               ; preds = %57, %42
  %.1 = phi ptr [ %54, %57 ], [ %39, %42 ]
  tail call void @cuddCacheInsert1(ptr noundef nonnull %0, ptr noundef nonnull @ddBddToAddRecur, ptr noundef %1, ptr noundef nonnull %.1) #4
  br label %67

67:                                               ; preds = %17, %15, %12, %8, %66, %56, %41, %30
  %.055 = phi ptr [ null, %30 ], [ null, %41 ], [ null, %56 ], [ %.1, %66 ], [ %14, %12 ], [ %10, %8 ], [ %16, %15 ], [ null, %17 ]
  ret ptr %.055
}